(dp0
Vbombe
p1
(lp2
(lp3
F-0.5143616653574057
aF-3.057455982925799e-15
aF-2.7539115250812634
aa(lp4
F-0.5143616653574057
aF-2.575073136431705e-15
aF-2.3194196835371192
aa(lp5
F-0.5143616653574057
aF-2.0926902899376118e-15
aF-1.884927841992976
aa(lp6
F1.77311008865441
aF-1.0569859430532346e-15
aF-0.9520482998540789
aa(lp7
F1.77311008865441
aF1.447148539482281e-15
aF1.3034755246324319
aa(lp8
F1.77311008865441
aF3.0077989251984662e-15
aF2.7091844237458385
aa(lp9
F-0.21405112781954205
aF5.206897195980363e-15
aF4.689956054314729
aa(lp10
F-1.6197600269329486
aF5.206897195980363e-15
aF4.689956054314729
aa(lp11
F-3.0190793401412934
aF5.206897195980363e-15
aF4.689956054314729
aa(lp12
F-5.0062405566152455
aF3.0077989251984662e-15
aF2.7091844237458385
aa(lp13
F-5.0062405566152455
aF1.461336270261519e-15
aF1.316254696442554
aa(lp14
F-5.0062405566152455
aF-9.789534237674254e-16
aF-0.8817628548984082
aa(lp15
F-2.71876880260343
aF-2.0926902899376118e-15
aF-1.884927841992976
aa(lp16
F-2.71876880260343
aF-2.575073136431705e-15
aF-2.3194196835371192
aa(lp17
F-2.71876880260343
aF-3.057455982925799e-15
aF-2.7539115250812634
aa(lp18
F-2.3992895073503826
aF-3.241896483055894e-15
aF-2.9200407586128474
aa(lp19
F-1.9264601503758731
aF-3.3270228677313225e-15
aF-2.99671578947358
aa(lp20
F-1.9264601503758731
aF-3.4015084543223218e-15
aF-3.0638064414767197
aa(lp21
F-1.9264601503758731
aF-3.4759940409133226e-15
aF-3.1308970934798594
aa(lp22
F-1.9264601503758731
aF-4.20666217604408e-15
aF-3.7890244417011347
aa(lp23
F-1.0702556390977076
aF-5.206897195980365e-15
aF-4.689956054314728
aa(lp24
F-0.4504658063067968
aF-5.206897195980365e-15
aF-4.689956054314728
aa(lp25
F0.3865699472561861
aF-5.206897195980365e-15
aF-4.689956054314728
aa(lp26
F1.5686433396924597
aF-4.0789725990309384e-15
aF-3.6740118954100387
aa(lp27
F1.7379673661765747
aF-3.9158136950697015e-15
aF-3.5270514195936373
aa(lp28
F1.9072913926606896
aF-3.752654791108463e-15
aF-3.380090943777236
aa(lp29
F3.1340918864323895
aF-2.582167001821325e-15
aF-2.325809269442181
aa(lp30
F3.9072317809447634
aF-2.582167001821325e-15
aF-2.325809269442181
aa(lp31
F4.169204803052263
aF-2.582167001821325e-15
aF-2.325809269442181
aa(lp32
F4.558969543260978
aF-2.8091706942891335e-15
aF-2.5302760184041313
aa(lp33
F4.616475816406527
aF-2.8446400212372285e-15
aF-2.5622239479294358
aa(lp34
F4.712319604982441
aF-2.8446400212372285e-15
aF-2.5622239479294358
aa(lp35
F5.0062405566152455
aF-2.8446400212372285e-15
aF-2.5622239479294358
aa(lp36
F5.0062405566152455
aF-2.582167001821325e-15
aF-2.325809269442181
aa(lp37
F5.0062405566152455
aF-2.305506251626183e-15
aF-2.0766154191448045
aa(lp38
F4.309775692963602
aF-1.8798743282490407e-15
aF-1.6932402648411475
aa(lp39
F3.8625046796093363
aF-1.8798743282490407e-15
aF-1.6932402648411475
aa(lp40
F2.9104563797552574
aF-1.8798743282490407e-15
aF-1.6932402648411475
aa(lp41
F1.498357894736789
aF-3.1993332907181806e-15
aF-2.881703243182483
aa(lp42
F1.3162546964425523
aF-3.369586060069036e-15
aF-3.0350533049039443
aa(lp43
F1.1341514981483165
aF-3.5398388294198928e-15
aF-3.1884033666254066
aa(lp44
F0.09903858152844425
aF-4.504604522408079e-15
aF-4.057387049713694
aa(lp45
F-0.46324497811691856
aF-4.504604522408079e-15
aF-4.057387049713694
aa(lp46
F-1.2938911457748405
aF-4.504604522408079e-15
aF-4.057387049713694
aa(lp47
F-1.2938911457748405
aF-3.3270228677313225e-15
aF-2.99671578947358
aa(lp48
F-0.8785680619458791
aF-3.2277087522766557e-15
aF-2.9072615868027256
aa(lp49
F-0.5143616653574057
aF-3.057455982925799e-15
aF-2.7539115250812634
aasVrotationExcentre
p50
(lp51
(lp52
F-4.828103673047714
aF1.7864813994366182
aF2.974702023177641e-15
aa(lp53
F-3.0496625268314825
aF3.239734709111317
aF1.7410895146008203
aa(lp54
F-3.2649892208617857
aF3.1012273338957925
aF0.7826553752695403
aa(lp55
F-1.798984559522998
aF3.702441195142804
aF0.656181694849904
aa(lp56
F-0.06097096412224977
aF3.8979658824734518
aF0.6162629112916599
aa(lp57
F1.682690130259479
aF3.76170455599711
aF0.6561816948499045
aa(lp58
F3.1683067486434418
aF3.2107317461380322
aF0.7826553752695422
aa(lp59
F2.9483909488378686
aF3.3418306368541173
aF1.7410895146008203
aa(lp60
F4.77526065357256
aF1.9499451621982602
aF3.8405449951495765e-15
aa(lp61
F2.9483909488378686
aF3.3418306368541173
aF-1.7410895146008134
aa(lp62
F3.1683067486434386
aF3.2107317461380322
aF-0.7826553752695321
aa(lp63
F1.6826901302594768
aF3.76170455599711
aF-0.6561816948498964
aa(lp64
F-0.060970964122250754
aF3.8979658824734518
aF-0.6162629112916516
aa(lp65
F-1.7989845595229987
aF3.702441195142804
aF-0.6561816948498955
aa(lp66
F-3.264989220861787
aF3.1012273338957925
aF-0.782655375269533
aa(lp67
F-3.0496625268314825
aF3.239734709111317
aF-1.741089514600812
aa(lp68
F-4.828103673047713
aF1.7864813994366182
aF4.7426102372434564e-15
aa(lp69
F-4.828103673047714
aF1.7864813994366182
aF2.974702023177641e-15
aasVcube
p70
(lp71
(lp72
F-5.0
aF5.0
aF-5.0
aa(lp73
F5.0
aF5.0
aF-5.0
aa(lp74
F5.0
aF-5.0
aF-5.0
aa(lp75
F-5.0
aF-5.0
aF-5.0
aa(lp76
F-5.0
aF-5.0
aF5.0
aa(lp77
F5.0
aF-5.0
aF5.0
aa(lp78
F5.0
aF-5.0
aF-5.0
aa(lp79
F5.0
aF5.0
aF-5.0
aa(lp80
F5.0
aF5.0
aF5.0
aa(lp81
F5.0
aF-5.0
aF5.0
aa(lp82
F5.0
aF5.0
aF5.0
aa(lp83
F-5.0
aF5.0
aF5.0
aa(lp84
F-5.0
aF-5.0
aF5.0
aa(lp85
F-5.0
aF5.0
aF5.0
aa(lp86
F-5.0
aF5.0
aF-5.0
aa(lp87
F-5.0
aF-5.0
aF-5.0
aasVobjectif
p88
(lp89
(lp90
F-2.2579060650016576
aF1.5965516143641964e-15
aF-4.9293805045604
aa(lp91
F-2.504519068953945
aF-9.918380166869494e-16
aF-4.620071365659809e-16
aa(lp92
F-2.5045190689539467
aF-1.0349900745949975e-15
aF9.748575061651238e-16
aa(lp93
F-2.257906065001662
aF-2.7816177722768632e-15
aF4.929380504560397
aa(lp94
F9.601708900619958e-17
aF-4.308406448835017e-15
aF4.707417105912636
aa(lp95
F2.257906065001662
aF-1.5965516143641958e-15
aF4.9293805045604
aa(lp96
F2.5045190689539485
aF9.908776262367407e-16
aF2.873892228703437e-15
aa(lp97
F1.7709624172683558
aF2.487714790002235e-15
aF-2.2013639343751477
aa(lp98
F1.2336878918653122e-15
aF2.5272823691005565e-15
aF-2.7613393483319784
aa(lp99
F-1.7709624172683531
aF1.0864022123261783e-15
aF-2.2013639343751477
aa(lp100
F-2.5045190689539485
aF-9.942173069501138e-16
aF2.2408806545240003e-15
aa(lp101
F-1.7709624172683551
aF-2.4877147900022355e-15
aF2.2013639343751477
aa(lp102
F1.1936144397355346e-16
aF-2.5272823691005596e-15
aF2.7613393483319784
aa(lp103
F1.7709624172683558
aF-1.0864022123261775e-15
aF2.201363934375153
aa(lp104
F2.5045190689539485
aF9.908776262367425e-16
aF3.4184593198568573e-16
aa(lp105
F2.257906065001667
aF2.7816177722768605e-15
aF-4.929380504560394
aa(lp106
F5.227190564355798e-16
aF4.308406448835017e-15
aF-4.707417105912636
aa(lp107
F-2.2579060650016576
aF1.5965516143641964e-15
aF-4.9293805045604
aasVgear
p108
(lp109
(lp110
F-3.6329942399511483
aF0.009094969526499203
aF0.03787291533038944
aa(lp111
F-4.9812344577290135
aF0.009094969526499203
aF-0.4001966077002277
aa(lp112
F-4.287394615868119
aF0.009094969526499203
aF-2.535617200503188
aa(lp113
F-2.939154398090256
aF0.009094969526499203
aF-2.0975474879971756
aa(lp114
F-1.122657356095204
aF0.009094969526499203
aF-3.417310095216299
aa(lp115
F-1.1226575726385128
aF0.009094969526499203
aF-4.834933387698356
aa(lp116
F1.1226565028148394
aF0.009094969526499203
aF-4.834933820784974
aa(lp117
F1.1226567193581483
aF0.009094969526499203
aF-3.4173105283029166
aa(lp118
F2.939154086168162
aF0.009094969526499203
aF-2.097548137627103
aa(lp119
F4.287394303946028
aF0.009094969526499203
aF-2.535617417046498
aa(lp120
F4.981234145806923
aF0.009094969526499203
aF-0.40019677010770954
aa(lp121
F3.6329939280290566
aF0.009094969526499203
aF0.03787269878708049
aa(lp122
F2.939153869624855
aF0.009094969526499203
aF2.1732928855713363
aa(lp123
F3.7724123058839707
aF0.009094969526499203
aF3.3201742443183764
aa(lp124
F1.955915372160572
aF0.009094969526499203
aF4.639936851537497
aa(lp125
F1.1226570441731116
aF0.009094969526499203
aF3.493055276247148
aa(lp126
F-1.1226567064652768
aF0.009094969526499203
aF3.493055492790458
aa(lp127
F-1.9559148179094277
aF0.009094969526499203
aF4.639937284624117
aa(lp128
F-3.772411751632825
aF0.009094969526499203
aF3.3201751104916126
aa(lp129
F-2.939153965003637
aF0.009094969526499203
aF2.1732933186579553
aa(lp130
F-3.6329942399511483
aF0.009094969526499203
aF0.03787291533038944
aasVincurveBas
p131
(lp132
(lp133
F7.645401525257057e-16
aF-0.4012455457377568
aF-4.564048067785559
aa(lp134
F1.8562739086916125
aF-0.2912012192802007
aF-4.216630595224769
aa(lp135
F3.429946941949809
aF-0.0038359025959892133
aF-3.2272693383925297
aa(lp136
F4.4814416458426
aF0.282856941363393
aF-1.7465855800594354
aa(lp137
F4.850677483525543
aF0.4012455457377585
aF1.9652451851483013e-15
aa(lp138
F4.481441645842598
aF0.28285694136339246
aF1.7465855800594374
aa(lp139
F3.429946941949809
aF-0.0038359025959900776
aF3.227269338392532
aa(lp140
F1.856273908691608
aF-0.2912012192802019
aF4.216630595224771
aa(lp141
F-1.4760677563114504e-15
aF-0.4012455457377585
aF4.564048067785559
aa(lp142
F-1.8562739086916131
aF-0.29120121928020287
aF4.216630595224767
aa(lp143
F-3.42994694194981
aF-0.0038359025959923327
aF3.2272693383925297
aa(lp144
F-4.4814416458426
aF0.2828569413633895
aF1.7465855800594359
aa(lp145
F-4.850677483525543
aF0.40124554573775484
aF-8.820946746780517e-16
aa(lp146
F-4.481441645842597
aF0.28285694136338985
aF-1.7465855800594365
aa(lp147
F-3.4299469419498085
aF-0.0038359025959914675
aF-3.227269338392532
aa(lp148
F-1.8562739086916074
aF-0.29120121928020193
aF-4.216630595224771
aa(lp149
F2.6494069920600136e-15
aF-0.4012455457377568
aF-4.564048067785559
aa(lp150
F7.645401525257057e-16
aF-0.4012455457377568
aF-4.564048067785559
aasVeye
p151
(lp152
(lp153
F-2.0361137456690135
aF1.0062553940368207e-15
aF-2.4941687312417855
aa(lp154
F-2.879499673659401
aF-1.438561192977412e-16
aF-1.4195355770964195e-16
aa(lp155
F-2.879499673659401
aF-1.6569020441724367e-16
aF5.850714426146978e-16
aa(lp156
F-2.036113745669016
aF-1.209011448142973e-15
aF2.4941687312417833
aa(lp157
F2.6478014569171915e-16
aF-2.179968179819601e-15
aF4.908851941157546
aa(lp158
F2.036113745669016
aF-1.0062553940368197e-15
aF2.4941687312417846
aa(lp159
F2.879499673659402
aF1.4337018078508681e-16
aF1.5459453333836318e-15
aa(lp160
F2.0361137456690166
aF1.0055941715320804e-15
aF-2.036113745669016
aa(lp161
F1.5459453333836318e-15
aF1.278754734838917e-15
aF-2.879499673659402
aa(lp162
F-2.0361137456690135
aF8.028381174259288e-16
aF-2.0361137456690166
aa(lp163
F-2.8794996736594034
aF-1.4505999296329408e-16
aF1.2256540364606534e-15
aa(lp164
F-2.036113745669016
aF-1.0055941715320808e-15
aF2.0361137456690166
aa(lp165
F2.6478014569171974e-16
aF-1.2787547348389182e-15
aF2.8794996736594043
aa(lp166
F2.0361137456690166
aF-8.028381174259288e-16
aF2.0361137456690184
aa(lp167
F2.8794996736594034
aF1.433701807850873e-16
aF2.6478014569171994e-16
aa(lp168
F2.036113745669017
aF1.2090114481429722e-15
aF-2.4941687312417815
aa(lp169
F9.053627395376761e-16
aF2.179968179819601e-15
aF-4.908851941157546
aa(lp170
F-2.0361137456690135
aF1.0062553940368207e-15
aF-2.4941687312417855
aasVdoubleFleches
p171
(lp172
(lp173
F-0.5675810489401338
aF9.776503815822358e-16
aF4.402945894192381
aa(lp174
F-4.970526943132523
aF6.301415488742375e-16
aF-3.705819256683769e-16
aa(lp175
F-0.5675810489401338
aF-9.776503815822358e-16
aF-4.402945894192383
aa(lp176
F-2.1171001325506498
aF-2.921650141773323e-31
aF-1.3157942489797298e-15
aa(lp177
F-0.5675810489401338
aF9.776503815822358e-16
aF4.402945894192383
aa(lp178
F0.5675810489401338
aF9.776503815822358e-16
aF4.4029458941923805
aa(lp179
F2.1171001325506498
aF1.975533452558628e-31
aF8.897011720800988e-16
aa(lp180
F0.5675810489401338
aF-9.77650381582236e-16
aF-4.402945894192383
aa(lp181
F4.970526943132523
aF5.763381398923533e-32
aF2.595596232058607e-16
aa(lp182
F0.5675810489401338
aF9.776503815822358e-16
aF4.402945894192381
aa(lp183
F-0.5675810489401338
aF9.776503815822358e-16
aF4.402945894192381
aa(lp184
F-0.5675810489401338
aF9.776503815822358e-16
aF4.402945894192381
aasVflecheDansCercle
p185
(lp186
(lp187
F1.1925355391862151
aF1.858086148194392e-15
aF1.6736152169261085
aa(lp188
F-4.871778708380051
aF1.858086148194392e-15
aF1.6736152169261085
aa(lp189
F-4.316165559441018
aF3.5506747447277453e-15
aF3.1981634914539407
aa(lp190
F-1.748148688125247
aF5.566735828598584e-15
aF5.0140698806693145
aa(lp191
F1.9378702511775998
aF5.566735828598584e-15
aF5.0140698806693145
aa(lp192
F4.871778708380051
aF2.309443107269953e-15
aF2.080161423466864
aa(lp193
F4.871778708380051
aF-2.309443107269953e-15
aF-2.0801614234668637
aa(lp194
F1.9378702511775998
aF-5.566735828598584e-15
aF-5.0140698806693145
aa(lp195
F-1.748148688125247
aF-5.566735828598584e-15
aF-5.0140698806693145
aa(lp196
F-4.316165559441018
aF-3.550674744727745e-15
aF-3.1981634914539416
aa(lp197
F-4.871778708380051
aF-1.858086148194393e-15
aF-1.673615216926109
aa(lp198
F1.1925355391862151
aF-1.858086148194393e-15
aF-1.673615216926109
aa(lp199
F1.1925355391862151
aF-3.708649680404192e-15
aF-3.3404546637432055
aa(lp200
F4.539765973038435
aF0.0
aF0.0
aa(lp201
F1.1925355391862151
aF3.708649680404191e-15
aF3.3404546637432055
aa(lp202
F1.1925355391862134
aF1.858086148194392e-15
aF1.673615216926109
aasVflecheDouble
p203
(lp204
(lp205
F-4.92878169814621
aF0.0011439437184837652
aF2.220446049250313e-16
aa(lp206
F-3.103265582215277
aF-0.00043072093884753546
aF-1.7871757943434892
aa(lp207
F-3.3242919293501028
aF-0.00028064203169216506
aF-0.8033721013564483
aa(lp208
F-1.8194824275020032
aF-0.000932084015343355
aF-0.6735506887455456
aa(lp209
F-0.03546397130432176
aF-0.0011439437184837652
aF-0.6325752632337289
aa(lp210
F1.75435147200559
aF-0.0009962985051299436
aF-0.6735506887455456
aa(lp211
F3.2792920553500227
aF-0.0003992949373011263
aF-0.8033721013564483
aa(lp212
F3.0535551297581605
aF-0.0005413464216882045
aF-1.7871757943434892
aa(lp213
F4.928781698146196
aF0.0009668234544076156
aF2.220446049250313e-16
aa(lp214
F3.0535551297581605
aF-0.0005413464216882045
aF1.7871757943434907
aa(lp215
F3.2792920553500178
aF-0.0003992949373011263
aF0.8033721013564478
aa(lp216
F1.75435147200559
aF-0.0009962985051299436
aF0.673550688745547
aa(lp217
F-0.03546397130432176
aF-0.0011439437184837652
aF0.6325752632337283
aa(lp218
F-1.8194824275020032
aF-0.000932084015343355
aF0.673550688745545
aa(lp219
F-3.324291929350104
aF-0.00028064203169216506
aF0.8033721013564498
aa(lp220
F-3.103265582215277
aF-0.00043072093884753546
aF1.7871757943434883
aa(lp221
F-4.928781698146207
aF0.0011439437184837652
aF-1.868330442905797e-15
aa(lp222
F-4.92878169814621
aF0.0011439437184837652
aF2.220446049250313e-16
aa(lp223
F-4.92878169814621
aF0.0011439437184837652
aF2.220446049250313e-16
aasVoval
p224
(lp225
(lp226
F-4.621097034042204
aF2.9841559048201905e-15
aF-1.5720524658349964
aa(lp227
F-5.001839386441603
aF2.687251188087734e-15
aF-1.863953148663839e-15
aa(lp228
F-4.621097034042204
aF1.8968499014329517e-15
aF1.5720524658349972
aa(lp229
F-3.536834548558814
aF9.493523438186081e-16
aF2.9047741944377066
aa(lp230
F-1.9141210645423645
aF-2.37265492277259e-16
aF3.7952703837809176
aa(lp231
F1.0873060033872394e-15
aF-1.3979648614978787e-15
aF4.107971061405187
aa(lp232
F1.9141210645423665
aF-2.2480053726078583e-15
aF3.7952703837809163
aa(lp233
F3.536834548558819
aF-2.8133054924824474e-15
aF2.9047741944377066
aa(lp234
F4.621097034042209
aF-2.9841559048201905e-15
aF1.5720524658349961
aa(lp235
F5.001839386441603
aF-2.687251188087732e-15
aF-1.2426354324425593e-15
aa(lp236
F4.621097034042206
aF-1.89684990143295e-15
aF-1.5720524658349995
aa(lp237
F3.5368345485588146
aF-9.493523438186062e-16
aF-2.904774194437707
aa(lp238
F1.914121064542366
aF2.372654922772605e-16
aF-3.79527038378092
aa(lp239
F6.213177162212797e-16
aF1.39796486149788e-15
aF-4.107971061405187
aa(lp240
F-1.9141210645423654
aF2.40333480166318e-15
aF-3.795270383780919
aa(lp241
F-3.5368345485588173
aF2.8133054924824486e-15
aF-2.9047741944377066
aa(lp242
F-4.621097034042204
aF2.9841559048201905e-15
aF-1.5720524658349964
aa(lp243
F-4.621097034042204
aF2.9841559048201905e-15
aF-1.5720524658349964
aasVcroixExentre
p244
(lp245
(lp246
F-5.798346344750079e-15
aF2.4143744943509087
aF-4.50617225891103
aa(lp247
F-0.6634561980400853
aF2.691613876696222
aF-3.3354195457025546
aa(lp248
F-0.219217373316407
aF2.691613876696222
aF-3.4550001731800597
aa(lp249
F-0.2924979897248867
aF2.8757470189526053
aF-2.2150791091923936
aa(lp250
F-0.9020856394510957
aF2.954874226678312
aF-0.902085639451087
aa(lp251
F-2.2150791091924065
aF2.8757470189526053
aF-0.2924979897248767
aa(lp252
F-3.455000173180074
aF2.691613876696222
aF-0.21921737331639865
aa(lp253
F-3.3354195457025653
aF2.691613876696222
aF-0.6634561980400767
aa(lp254
F-4.50617225891104
aF2.4143744943509082
aF1.035207504766849e-15
aa(lp255
F-3.3354195457025653
aF2.691613876696222
aF0.6634561980400794
aa(lp256
F-3.455000173180071
aF2.691613876696222
aF0.219217373316402
aa(lp257
F-2.2150791091924042
aF2.8757470189526053
aF0.29249798972488167
aa(lp258
F-0.9020856394510957
aF2.954874226678312
aF0.9020856394510901
aa(lp259
F-0.29249798972488317
aF2.8757470189526053
aF2.215079109192397
aa(lp260
F-0.21921737331640623
aF2.691613876696222
aF3.455000173180061
aa(lp261
F-0.6634561980400854
aF2.691613876696222
aF3.3354195457025564
aa(lp262
F-6.6003360978167906e-15
aF2.4143744943509042
aF4.506172258911032
aa(lp263
F0.6634561980400709
aF2.691613876696222
aF3.3354195457025564
aa(lp264
F0.21921737331639501
aF2.691613876696222
aF3.455000173180061
aa(lp265
F0.29249798972487356
aF2.8757470189526053
aF2.2150791091923963
aa(lp266
F0.9020856394510801
aF2.954874226678312
aF0.9020856394510899
aa(lp267
F2.2150791091923843
aF2.8757470189526053
aF0.2924979897248803
aa(lp268
F3.4550001731800486
aF2.691613876696222
aF0.2192173733164022
aa(lp269
F3.3354195457025457
aF2.691613876696222
aF0.6634561980400808
aa(lp270
F4.5061722589110165
aF2.4143744943509082
aF2.712697091918339e-15
aa(lp271
F3.3354195457025457
aF2.691613876696222
aF-0.6634561980400748
aa(lp272
F3.4550001731800486
aF2.691613876696222
aF-0.21921737331639865
aa(lp273
F2.2150791091923843
aF2.8757470189526053
aF-0.2924979897248767
aa(lp274
F0.9020856394510801
aF2.954874226678312
aF-0.9020856394510846
aa(lp275
F0.2924979897248713
aF2.8757470189526053
aF-2.2150791091923945
aa(lp276
F0.21921737331639343
aF2.691613876696222
aF-3.4550001731800632
aa(lp277
F0.6634561980400719
aF2.691613876696222
aF-3.3354195457025524
aa(lp278
F-5.798346344750079e-15
aF2.4143744943509087
aF-4.50617225891103
aasVskull
p279
(lp280
(lp281
F0.7670580839792983
aF4.1790977908804702e-16
aF-0.35906350027589595
aa(lp282
F0.7031143032183192
aF3.8170393167001193e-16
aF-0.1960068593354003
aa(lp283
F0.639170522457341
aF3.4549808425197704e-16
aF-0.03295021839490442
aa(lp284
F0.39618415556562236
aF3.270402012545475e-16
aF0.05017669659436752
aa(lp285
F-0.019450419380738094
aF3.270402012545475e-16
aF0.05017669659436752
aa(lp286
F-0.22407051781586984
aF3.270402012545475e-16
aF0.05017669659436752
aa(lp287
F-0.5565781777729583
aF3.369790613300865e-16
aF0.0054160500616824425
aa(lp288
F-0.6780713612188172
aF3.4549808425197704e-16
aF-0.03295021839490442
aa(lp289
F-0.7420151419797955
aF3.8170393167001193e-16
aF-0.1960068593354003
aa(lp290
F-0.8059589227407745
aF4.1790977908804702e-16
aF-0.35906350027589595
aa(lp291
F-1.2535653880676245
aF4.654743237352696e-16
aF-0.5732751658251745
aa(lp292
F-1.7011718533944744
aF5.13038868382492e-16
aF-0.7874868313744534
aa(lp293
F-1.7427353108891104
aF5.726720288357259e-16
aF-1.0560507105705625
aa(lp294
F-1.7842987683837466
aF6.323051892889599e-16
aF-1.3246145897666717
aa(lp295
F-1.8034819026120403
aF6.663812809765224e-16
aF-1.4780796635930213
aa(lp296
F-2.059257025655955
aF7.657698817319125e-16
aF-1.9256861289198708
aa(lp297
F-2.257482746014988
aF8.396014137216308e-16
aF-2.2581937888769597
aa(lp298
F-2.257482746014988
aF1.0028826863912003e-15
aF-2.9935472676282133
aa(lp299
F-2.257482746014988
aF1.19314086498009e-15
aF-3.8503939298253265
aa(lp300
F-1.0169733992520038
aF1.4288338324857296e-15
aF-4.911860690457571
aa(lp301
F-0.019450419380738094
aF1.4288338324857296e-15
aF-4.911860690457571
aa(lp302
F0.9780725604905277
aF1.4288338324857296e-15
aF-4.911860690457571
aa(lp303
F2.2185819072535122
aF1.19314086498009e-15
aF-3.8503939298253265
aa(lp304
F2.2185819072535122
aF1.0028826863912003e-15
aF-2.9935472676282133
aa(lp305
F2.2185819072535122
aF8.396014137216308e-16
aF-2.2581937888769597
aa(lp306
F1.8093417103832494
aF6.834193268203034e-16
aF-1.554812200506195
aa(lp307
F1.770975441926662
aF6.663812809765224e-16
aF-1.4780796635930213
aa(lp308
F1.7453979296222704
aF6.3230518928896e-16
aF-1.3246145897666726
aa(lp309
F1.7038344721276335
aF5.726720288357259e-16
aF-1.0560507105705625
aa(lp310
F1.6622710146329982
aF5.130388683824918e-16
aF-0.7874868313744525
aa(lp311
F1.2146645493061485
aF4.654743237352696e-16
aF-0.5732751658251745
aa(lp312
F0.7670580839792983
aF4.1790977908804702e-16
aF-0.35906350027589595
aa(lp313
F1.1890870370017572
aF3.8525352455413316e-16
aF-0.21199280452564562
aa(lp314
F1.1091573110505335
aF3.1497158544853574e-16
aF0.1045289102411997
aa(lp315
F1.0292275850993107
aF2.4468964634293847e-16
aF0.42105062500804347
aa(lp316
F0.8341990537783258
aF2.07063961771255e-16
aF0.5905016440246369
aa(lp317
F0.639170522457341
aF1.6943827719957173e-16
aF0.7599526630412295
aa(lp318
F0.5368604732397758
aF1.2542332543647045e-16
aF0.9581783834002628
aa(lp319
F0.197958435206589
aF8.140837367336898e-17
aF1.156404103759297
aa(lp320
F-0.03223917553293346
aF8.140837367336898e-17
aF1.156404103759297
aa(lp321
F-0.49263439701197914
aF8.140837367336898e-17
aF1.156404103759297
aa(lp322
F-0.7036488735232086
aF1.6943827719957173e-16
aF0.7599526630412295
aa(lp323
F-0.8986774048441935
aF2.07063961771255e-16
aF0.5905016440246369
aa(lp324
F-1.0937059361651784
aF2.4468964634293847e-16
aF0.42105062500804347
aa(lp325
F-1.1736356621164012
aF3.1497158544853574e-16
aF0.1045289102411997
aa(lp326
F-1.2535653880676245
aF3.8525352455413316e-16
aF-0.21199280452564562
aa(lp327
F-1.1384665826978633
aF3.9164279174555116e-16
aF-0.24076750586808626
aa(lp328
F-1.0233677773281016
aF3.98032058936969e-16
aF-0.26954220721052624
aa(lp329
F-0.9850015088715147
aF3.767345016322425e-16
aF-0.1736265360690572
aa(lp330
F-0.965818374643221
aF3.653758044030552e-16
aF-0.12247151146027502
aa(lp331
F-0.8187476788929706
aF2.901244352596883e-16
aF0.21643052657291184
aa(lp332
F-0.46705688470758844
aF2.418499720356417e-16
aF0.4338393811602388
aa(lp333
F-0.05781668783732493
aF2.418499720356417e-16
aF0.4338393811602388
aa(lp334
F0.40257853364172075
aF2.418499720356417e-16
aF0.4338393811602388
aa(lp335
F0.7542693278271029
aF2.872847609523915e-16
aF0.22921928272510717
aa(lp336
F0.9013400235773533
aF3.653758044030552e-16
aF-0.12247151146027502
aa(lp337
F0.9205231578056471
aF3.767345016322425e-16
aF-0.1736265360690572
aa(lp338
F0.958889426262234
aF3.98032058936969e-16
aF-0.26954220721052624
aa(lp339
F1.073988231631995
aF3.9164279174555116e-16
aF-0.24076750586808626
aa(lp340
F1.1890870370017572
aF3.8525352455413316e-16
aF-0.21199280452564562
aa(lp341
F0.006127092923653374
aF-2.0113921990266868e-16
aF2.428885340902771
aa(lp342
F0.42176166787001385
aF-1.500250823713252e-16
aF2.1986877301632477
aa(lp343
F1.4640452942739648
aF-5.205631876958345e-17
aF1.7574756429124954
aa(lp344
F1.5152003188827479
aF-4.637697015498972e-17
aF1.7318981306081038
aa(lp345
F1.732609173470075
aF-2.649925000391166e-17
aF1.6423768375427337
aa(lp346
F2.10348310188375
aF5.727114206134567e-17
aF1.2651085310529604
aa(lp347
F2.589455835667188
aF1.4104153412660307e-16
aF0.8878402245631869
aa(lp348
F2.698160262960851
aF1.4104153412660307e-16
aF0.8878402245631869
aa(lp349
F2.832442202558906
aF1.4104153412660307e-16
aF0.8878402245631869
aa(lp350
F2.960329764080864
aF1.041257681317439e-16
aF1.0540940545417312
aa(lp351
F2.960329764080864
aF6.579016498323634e-17
aF1.2267422625963729
aa(lp352
F2.960329764080864
aF3.3133910449322347e-17
aF1.373812958346624
aa(lp353
F2.915569117548178
aF-2.649925000391166e-17
aF1.6423768375427337
aa(lp354
F3.1905273748203866
aF-1.0317045630092695e-16
aF1.9876732536520183
aa(lp355
F3.1905273748203866
aF-1.4008622229578611e-16
aF2.1539270836305624
aa(lp356
F3.1905273748203866
aF-1.7132263967605164e-16
aF2.2946034013047156
aa(lp357
F3.037062300994038
aF-2.0397889420996556e-16
aF2.4416740970549666
aa(lp358
F2.8835972271676886
aF-2.0397889420996556e-16
aF2.4416740970549666
aa(lp359
F2.8068646902545153
aF-2.0397889420996556e-16
aF2.4416740970549666
aa(lp360
F2.493540164525719
aF-1.6848296536875477e-16
aF2.2818146451525196
aa(lp361
F2.250553797634001
aF-1.344068736811924e-16
aF2.128349571326171
aa(lp362
F1.6622710146329982
aF-1.585441052932157e-16
aF2.2370539986198343
aa(lp363
F0.5624379855441672
aF-2.8065010050698075e-16
aF2.786970513164251
aa(lp364
F0.70311430321832
aF-2.9910798350441035e-16
aF2.8700974281535228
aa(lp365
F0.7670580839792983
aF-3.076270064263009e-16
aF2.9084636966101103
aa(lp366
F1.1507207685451697
aF-3.5590146965034757e-16
aF3.1258725511974372
aa(lp367
F1.7134260392417813
aF-4.368321874083081e-16
aF3.4903521015350147
aa(lp368
F1.7837641980788579
aF-4.467710474838472e-16
aF3.5351127480677
aa(lp369
F2.033144943046674
aF-4.79427302017761e-16
aF3.6821834438179506
aa(lp370
F3.1969217528964835
aF-5.092438822443781e-16
aF3.8164653834160065
aa(lp371
F3.1969217528964835
aF-6.100523201534167e-16
aF4.270466226818954
aa(lp372
F3.1969217528964835
aF-6.753648292212445e-16
aF4.564607618319455
aa(lp373
F2.570272701438894
aF-6.980822236796193e-16
aF4.666917667537021
aa(lp374
F2.2761313099383926
aF-7.775931042839314e-16
aF5.025002839798502
aa(lp375
F2.084299967655457
aF-7.775931042839314e-16
aF5.025002839798502
aa(lp376
F1.8541023569159338
aF-7.775931042839314e-16
aF5.025002839798502
aa(lp377
F1.6366935023286067
aF-6.44128411840979e-16
aF4.423931300645303
aa(lp378
F1.617510368100313
aF-6.299300403044946e-16
aF4.359987519884323
aa(lp379
F1.5663553434915307
aF-6.029531343851744e-16
aF4.238494336438465
aa(lp380
F0.6711424128378308
aF-4.3967186171560495e-16
aF3.5031408576872107
aa(lp381
F-0.045027931685129564
aF-3.5590146965034757e-16
aF3.1258725511974372
aa(lp382
F-0.9210577281105358
aF-4.652289304812768e-16
aF3.618239663056972
aa(lp383
F-1.6691999630139853
aF-6.171515059216587e-16
aF4.3024381171994435
aa(lp384
F-1.7715100122315512
aF-7.775931042839314e-16
aF5.025002839798502
aa(lp385
F-2.1040176721886397
aF-7.775931042839314e-16
aF5.025002839798502
aa(lp386
F-2.315032148699869
aF-7.775931042839314e-16
aF5.025002839798502
aa(lp387
F-2.5899904059720766
aF-6.867235264504318e-16
aF4.615762642928238
aa(lp388
F-3.242216969734058
aF-6.867235264504318e-16
aF4.615762642928238
aa(lp389
F-3.242216969734058
aF-6.072126458461198e-16
aF4.257677470666758
aa(lp390
F-3.242216969734058
aF-5.489993225465342e-16
aF3.995507969546746
aa(lp391
F-2.756244235950621
aF-4.964653478615422e-16
aF3.7589159807311257
aa(lp392
F-1.9761301106666824
aF-4.709082790958705e-16
aF3.643817175361364
aa(lp393
F-1.3942417057417775
aF-3.7577918980142563e-16
aF3.215393844262807
aa(lp394
F-0.594944446229545
aF-2.8065010050698075e-16
aF2.786970513164251
aa(lp395
F-1.6691999630139853
aF-1.6138377960051256e-16
aF2.2498427547720303
aa(lp396
F-2.347004039080358
aF-1.344068736811924e-16
aF2.128349571326171
aa(lp397
F-2.5068634909828047
aF-1.656432910614579e-16
aF2.269025889000324
aa(lp398
F-2.7754273701789147
aF-1.9687970844172335e-16
aF2.409702206674477
aa(lp399
F-2.890526175548676
aF-1.9687970844172335e-16
aF2.409702206674477
aa(lp400
F-3.05678000552722
aF-1.9687970844172335e-16
aF2.409702206674477
aa(lp401
F-3.229428213581863
aF-1.656432910614579e-16
aF2.269025889000324
aa(lp402
F-3.229428213581863
aF-1.3582671083484085e-16
aF2.134743949402269
aa(lp403
F-3.229428213581863
aF-1.0884980491552068e-16
aF2.0132507659564096
aa(lp404
F-2.9480755782335564
aF-2.649925000391166e-17
aF1.6423768375427337
aa(lp405
F-3.012019358994535
aF3.1714073295673953e-17
aF1.3802073364227219
aa(lp406
F-3.012019358994535
aF6.1530653522291e-17
aF1.2459253968246666
aa(lp407
F-3.012019358994535
aF1.041257681317439e-16
aF1.0540940545417312
aa(lp408
F-2.8585542851681867
aF1.453010455875484e-16
aF0.8686570903348931
aa(lp409
F-2.711483589417936
aF1.453010455875484e-16
aF0.8686570903348931
aa(lp410
F-2.564412893667685
aF1.453010455875484e-16
aF0.8686570903348931
aa(lp411
F-2.0912289160364437
aF6.011081636864261e-17
aF1.2523197749007644
aa(lp412
F-1.7587212560793555
aF-2.649925000391166e-17
aF1.6423768375427337
aa(lp413
F-1.0233677773281016
aF-8.471257330349736e-17
aF1.9045463386627461
aa(lp414
F0.006127092923653374
aF-2.0113921990266868e-16
aF2.428885340902771
aa(lp415
F-1.4837629988071472
aF7.714492303465063e-16
aF-1.9512636412242632
aa(lp416
F-1.4837629988071472
aF6.351448635962568e-16
aF-1.3374033459188681
aa(lp417
F-0.9530296184910256
aF6.351448635962568e-16
aF-1.3374033459188681
aa(lp418
F-0.4159018600988055
aF6.351448635962568e-16
aF-1.3374033459188681
aa(lp419
F-0.4159018600988055
aF7.813880904220453e-16
aF-1.9960242877569476
aa(lp420
F-0.4159018600988055
aF9.020742484821617e-16
aF-2.539546424225265
aa(lp421
F-0.9338464842627319
aF9.020742484821617e-16
aF-2.539546424225265
aa(lp422
F-1.2088047415349397
aF9.020742484821617e-16
aF-2.539546424225265
aa(lp423
F-1.4837629988071472
aF8.367617394143341e-16
aF-2.245405032724764
aa(lp424
F-1.4837629988071472
aF7.714492303465063e-16
aF-1.9512636412242632
aa(lp425
F0.40897291171781847
aF7.714492303465063e-16
aF-1.9512636412242632
aa(lp426
F0.40897291171781847
aF6.351448635962568e-16
aF-1.3374033459188681
aa(lp427
F0.9461006701100386
aF6.351448635962568e-16
aF-1.3374033459188681
aa(lp428
F1.4832284285022588
aF6.351448635962568e-16
aF-1.3374033459188681
aa(lp429
F1.4832284285022588
aF7.813880904220453e-16
aF-1.9960242877569476
aa(lp430
F1.4832284285022588
aF8.424410880289276e-16
aF-2.2709825450291543
aa(lp431
F1.2210589273822463
aF9.020742484821617e-16
aF-2.539546424225265
aa(lp432
F0.958889426262234
aF9.020742484821617e-16
aF-2.539546424225265
aa(lp433
F0.40897291171781847
aF9.020742484821617e-16
aF-2.539546424225265
aa(lp434
F0.40897291171781847
aF7.714492303465063e-16
aF-1.9512636412242632
aa(lp435
F-0.013056041304640411
aF6.564424209009834e-16
aF-1.433319017060336
aa(lp436
F-0.12815484667440166
aF6.138473062915305e-16
aF-1.2414876747774006
aa(lp437
F-0.24964803012026132
aF5.811910517576165e-16
aF-1.0944169790271492
aa(lp438
F-0.4031131039466094
aF5.428554486091089e-16
aF-0.9217687709725075
aa(lp439
F-0.4031131039466094
aF5.215578913043824e-16
aF-0.8258530998310392
aa(lp440
F-0.4031131039466094
aF4.988404968460076e-16
aF-0.7235430506134743
aa(lp441
F-0.28161992050075046
aF4.761231023876327e-16
aF-0.6212330013959082
aa(lp442
F-0.1665211151309885
aF4.761231023876327e-16
aF-0.6212330013959082
aa(lp443
F-0.0961829562939125
aF4.761231023876327e-16
aF-0.6212330013959082
aa(lp444
F-0.013056041304640411
aF4.874817996168201e-16
aF-0.6723880260046913
aa(lp445
F0.07007087368463168
aF4.761231023876327e-16
aF-0.6212330013959082
aa(lp446
F0.14040903252170842
aF4.761231023876327e-16
aF-0.6212330013959082
aa(lp447
F0.3770010213373293
aF4.761231023876327e-16
aF-0.6212330013959082
aa(lp448
F0.3770010213373293
aF5.229777284580309e-16
aF-0.8322474779071378
aa(lp449
F0.3770010213373293
aF5.428554486091089e-16
aF-0.9217687709725075
aa(lp450
F0.2235359475109805
aF5.811910517576165e-16
aF-1.0944169790271492
aa(lp451
F0.09564838598902314
aF6.152671434451789e-16
aF-1.247882052853498
aa(lp452
F-0.013056041304640411
aF6.564424209009834e-16
aF-1.433319017060336
aasVpoleVector
p453
(lp454
(lp455
F0.0
aF0.0
aF-2.4626738522015086
aa(lp456
F-1.8523135253132317
aF4.471880434578344
aF2.3776546508262464
aa(lp457
F-4.189853542671508
aF4.189853542671513
aF3.4626738522015055
aa(lp458
F-4.471880434578335
aF1.85231352531324
aF2.3776546508262464
aa(lp459
F0.0
aF-1.3156914900676087e-15
aF-2.4626738522015086
aa(lp460
F-4.471880434578335
aF-1.8523135253132421
aF2.3776546508262464
aa(lp461
F-4.189853542671508
aF-4.189853542671514
aF3.4626738522015055
aa(lp462
F-1.8523135253132317
aF-4.471880434578344
aF2.377654650826253
aa(lp463
F0.0
aF-1.3156914900676087e-15
aF-2.4626738522015086
aa(lp464
F1.8523135253132317
aF-4.471880434578342
aF2.377654650826253
aa(lp465
F4.189853542671508
aF-4.189853542671513
aF3.4626738522015055
aa(lp466
F4.471880434578335
aF-1.8523135253132386
aF2.3776546508262464
aa(lp467
F0.0
aF-1.3156914900676087e-15
aF-2.4626738522015086
aa(lp468
F4.471880434578335
aF1.8523135253132421
aF2.3776546508262464
aa(lp469
F4.189853542671508
aF4.189853542671514
aF3.4626738522015055
aa(lp470
F1.8523135253132317
aF4.471880434578344
aF2.3776546508262464
aa(lp471
F0.0
aF-1.3156914900676085e-15
aF-2.4626738522015086
aa(lp472
F0.0
aF0.0
aF-2.4626738522015086
aasVcarre
p473
(lp474
(lp475
F0.3841403448481986
aF-4.874689524555011e-15
aF4.961182745929185
aa(lp476
F5.345323090777389
aF1.2053042129192096e-16
aF-3.7624081431707206e-15
aa(lp477
F0.3841403448481994
aF-1.5646040182708988e-15
aF-4.961182745929185
aa(lp478
F-4.577042401080986
aF-6.559823964117835e-15
aF-6.711393412405653e-15
aa(lp479
F0.3841403448481973
aF-4.874689524555011e-15
aF4.961182745929183
aa(lp480
F0.3841403448481986
aF-4.874689524555011e-15
aF4.961182745929185
aa(lp481
F0.3841403448481986
aF-4.874689524555011e-15
aF4.961182745929185
aasVcircle
p482
(lp483
(lp484
F3.061616997868383e-16
aF3.061616997868383e-16
aF-5.0
aa(lp485
F-3.5355339059327373
aF2.1648901405887336e-16
aF-3.5355339059327378
aa(lp486
F-5.0
aF8.672855095561777e-32
aF-1.4163847244119948e-15
aa(lp487
F-3.5355339059327386
aF-2.1648901405887326e-16
aF3.535533905932737
aa(lp488
F-1.693940480568284e-15
aF-3.061616997868383e-16
aF5.0
aa(lp489
F3.535533905932736
aF-2.164890140588734e-16
aF3.535533905932739
aa(lp490
F5.0
aF-1.5471010462796233e-31
aF2.5266077490371513e-15
aa(lp491
F3.5355339059327395
aF2.1648901405887319e-16
aF-3.5355339059327355
aa(lp492
F3.636830773662308e-15
aF3.061616997868383e-16
aF-5.0
aasVmain
p493
(lp494
(lp495
F0.8762335620281808
aF-0.01890805079924383
aF3.8498775359297426
aa(lp496
F1.742944672267628
aF-0.018908050799243535
aF3.175768894632395
aa(lp497
F2.2758115030074357
aF-0.0189080507992433
aF2.6493221461906566
aa(lp498
F2.815098416045314
aF-0.01890805079924298
aF1.927062887657784
aa(lp499
F3.354385329083193
aF-0.018908050799242657
aF1.2048036291249113
aa(lp500
F3.948242941654665
aF-0.01890805079924241
aF0.649466510341858
aa(lp501
F4.542100554226138
aF-0.018908050799242165
aF0.09412939155880473
aa(lp502
F4.233936603918781
aF-0.01890805079924205
aF-0.16267390036399476
aa(lp503
F3.9578730651017704
aF-0.01890805079924205
aF-0.16267390036399476
aa(lp504
F3.649709114794411
aF-0.01890805079924205
aF-0.16267390036399476
aa(lp505
F3.123262366352674
aF-0.018908050799242227
aF0.241791284414414
aa(lp506
F2.9049795682182946
aF-0.01890805079924241
aF0.6526765514908925
aa(lp507
F1.7750450837579779
aF-0.01890805079924257
aF1.0057810778847414
aa(lp508
F1.00463520798958
aF-0.018908050799242983
aF1.9366930111048886
aa(lp509
F0.8826536443262506
aF-0.01890805079924294
aF1.840391776633839
aa(lp510
F0.7606720806629206
aF-0.018908050799242897
aF1.7440905421627897
aa(lp511
F1.1458770185471192
aF-0.01890805079924264
aF1.1662831353364909
aa(lp512
F1.8135655775463981
aF-0.01890805079924248
aF0.8067585266445724
aa(lp513
F1.7557848368637676
aF-0.01890805079924228
aF0.35093268348160367
aa(lp514
F1.6466434377965788
aF-0.01890805079924211
aF-0.027852172104525175
aa(lp515
F2.051108622574986
aF-0.01890805079924144
aF-1.5397815533000045
aa(lp516
F2.455573807353395
aF-0.01890805079924077
aF-3.0517109344954845
aa(lp517
F2.5839754533147956
aF-0.018908050799240562
aF-3.5139568599565236
aa(lp518
F2.5839754533147956
aF-0.018908050799240468
aF-3.725819575792832
aa(lp519
F2.5839754533147956
aF-0.01890805079924038
aF-3.9184220447349323
aa(lp520
F2.4427336427572555
aF-0.0189080507992403
aF-4.104604431378963
aa(lp521
F2.3014918321997166
aF-0.0189080507992403
aF-4.104604431378963
aa(lp522
F2.0318483756807773
aF-0.0189080507992403
aF-4.104604431378963
aa(lp523
F1.8071454952483277
aF-0.018908050799240593
aF-3.4433359546777536
aa(lp524
F1.3416895286382546
aF-0.018908050799241207
aF-2.063018260592708
aa(lp525
F0.87623356202818
aF-0.018908050799241818
aF-0.6827005665076631
aa(lp526
F0.6001700232111717
aF-0.018908050799241818
aF-0.6827005665076631
aa(lp527
F0.32410648439416206
aF-0.018908050799241818
aF-0.6827005665076631
aa(lp528
F0.3626269781825824
aF-0.01890805079924112
aF-2.2588307706838435
aa(lp529
F0.4011474719710019
aF-0.01890805079924042
aF-3.834960974860023
aa(lp530
F0.4043575131200372
aF-0.018908050799240374
aF-3.9376822916291423
aa(lp531
F0.4075675542690725
aF-0.018908050799240326
aF-4.040403608398263
aa(lp532
F0.40756755426907176
aF-0.018908050799239955
aF-4.881434389445429
aa(lp533
F0.0031023694906636983
aF-0.018908050799239955
aF-4.881434389445429
aa(lp534
F-0.19592018174950615
aF-0.018908050799239955
aF-4.881434389445429
aa(lp535
F-0.4013628152877451
aF-0.018908050799240083
aF-4.59253068603228
aa(lp536
F-0.4013628152877451
aF-0.018908050799240215
aF-4.297206900321061
aa(lp537
F-0.39815277413871053
aF-0.018908050799240305
aF-4.094974307931857
aa(lp538
F-0.3949427329896753
aF-0.018908050799240392
aF-3.8927417155426522
aa(lp539
F-0.3949427329896753
aF-0.018908050799241106
aF-2.2877211410251577
aa(lp540
F-0.3949427329896753
aF-0.018908050799241818
aF-0.6827005665076631
aa(lp541
F-0.6485359837634396
aF-0.01890805079924184
aF-0.6377599904211728
aa(lp542
F-0.9021292345372038
aF-0.01890805079924186
aF-0.5928194143346828
aa(lp543
F-1.3033843781665775
aF-0.018908050799241204
aF-2.0662283017417433
aa(lp544
F-1.704639521795951
aF-0.018908050799240548
aF-3.5396371891488028
aa(lp545
F-1.9165022376322605
aF-0.0189080507992402
aF-4.3293073118114105
aa(lp546
F-2.2567665994299695
aF-0.0189080507992402
aF-4.3293073118114105
aa(lp547
F-2.4236887391797888
aF-0.0189080507992402
aF-4.3293073118114105
aa(lp548
F-2.5906108789296085
aF-0.018908050799240288
aF-4.130284760571241
aa(lp549
F-2.5906108789296085
aF-0.018908050799240378
aF-3.924842127033003
aa(lp550
F-2.5906108789296085
aF-0.01890805079924044
aF-3.790020398773534
aa(lp551
F-2.4750493975643484
aF-0.01890805079924062
aF-3.3791351316970544
aa(lp552
F-2.04490388359366
aF-0.018908050799241318
aF-1.8158450921170144
aa(lp553
F-1.6147583696229715
aF-0.01890805079924201
aF-0.2525550525369742
aa(lp554
F-1.8490913735025256
aF-0.018908050799242057
aF-0.14020361232075007
aa(lp555
F-2.0834243773820798
aF-0.01890805079924211
aF-0.027852172104525175
aa(lp556
F-2.7800033067226724
aF-0.018908050799241606
aF-1.1609966977138764
aa(lp557
F-3.476582236063266
aF-0.018908050799241103
aF-2.2941412233232286
aa(lp558
F-3.7398056102841344
aF-0.01890805079924091
aF-2.730706819591987
aa(lp559
F-3.9324080792262346
aF-0.01890805079924091
aF-2.730706819591987
aa(lp560
F-4.060809725187633
aF-0.01890805079924091
aF-2.730706819591987
aa(lp561
F-4.1892113711490335
aF-0.018908050799240975
aF-2.5894650090344467
aa(lp562
F-4.1892113711490335
aF-0.018908050799241037
aF-2.4418031161788374
aa(lp563
F-4.1892113711490335
aF-0.01890805079924112
aF-2.255620729534808
aa(lp564
F-3.9516683261204437
aF-0.0189080507992413
aF-1.8447354624583285
aa(lp565
F-3.3096600963134457
aF-0.018908050799241793
aF-0.7436913483393266
aa(lp566
F-2.6676518665064477
aF-0.01890805079924228
aF0.3573527657796749
aa(lp567
F-2.7061723602948677
aF-0.018908050799242473
aF0.7907083208993975
aa(lp568
F-2.744692854083288
aF-0.018908050799242664
aF1.2240638760191207
aa(lp569
F-2.5456703028431185
aF-0.018908050799243254
aF2.5466008294215365
aa(lp570
F-2.0834243773820798
aF-0.018908050799243653
aF3.445412351151334
aa(lp571
F-1.7881005916708606
aF-0.01890805079924381
aF3.7985168775451825
aa(lp572
F-1.4927768059596422
aF-0.018908050799243965
aF4.151621403939032
aa(lp573
F-1.4927768059596422
aF-0.01890805079924409
aF4.430894983905075
aa(lp574
F-1.4927768059596422
aF-0.018908050799244215
aF4.71016856387112
aa(lp575
F-0.9278095637294839
aF-0.01890805079924431
aF4.9284513620055
aa(lp576
F-0.298641498518626
aF-0.01890805079924431
aF4.9284513620055
aa(lp577
F0.22138516762504298
aF-0.01890805079924431
aF4.9284513620055
aa(lp578
F0.8762335620281808
aF-0.018908050799244215
aF4.71016856387112
aa(lp579
F0.8762335620281808
aF-0.018908050799244024
aF4.280023049900431
aa(lp580
F0.8762335620281808
aF-0.01890805079924383
aF3.8498775359297426
aasVcroixDirectionnelle
p581
(lp582
(lp583
F7.75340548015901e-15
aF9.553915901929037e-06
aF4.988546961669093
aa(lp584
F0.8406826284768193
aF-2.4709447882435387e-07
aF4.226396978485654
aa(lp585
F0.27777604331957356
aF-2.470944792328324e-07
aF4.377920706080136
aa(lp586
F0.5081123289013915
aF-6.756598372529802e-06
aF3.847920479491809
aa(lp587
F2.679507768949056
aF-9.553915901186211e-06
aF2.679507768949055
aa(lp588
F3.8479204794918123
aF-6.75659836920146e-06
aF0.5081123289013769
aa(lp589
F4.377920706080146
aF-2.47094475148048e-07
aF0.27777604331956135
aa(lp590
F4.226396978485656
aF-2.47094475435496e-07
aF0.8406826284768126
aa(lp591
F4.988546961669096
aF9.553915906906428e-06
aF-3.773362534316959e-15
aa(lp592
F4.226396978485656
aF-2.470944748757291e-07
aF-0.8406826284768164
aa(lp593
F4.377920706080141
aF-2.4709447496650223e-07
aF-0.2777760433195682
aa(lp594
F3.8479204794918123
aF-6.756598368853487e-06
aF-0.5081123289013867
aa(lp595
F2.679507768949056
aF-9.553915899401e-06
aF-2.6795077689490663
aa(lp596
F0.5081123289013861
aF-6.7565983699730386e-06
aF-3.847920479491817
aa(lp597
F0.2777760433195724
aF-2.4709447632809695e-07
aF-4.377920706080139
aa(lp598
F0.8406826284768193
aF-2.470944759952626e-07
aF-4.226396978485656
aa(lp599
F8.237528072866094e-15
aF9.553915905242254e-06
aF-4.988546961669093
aa(lp600
F-0.840682628476808
aF-2.47094477114796e-07
aF-4.226396978485656
aa(lp601
F-0.2777760433195575
aF-2.4709447669118874e-07
aF-4.377920706080139
aa(lp602
F-0.508112328901376
aF-6.7565983706386896e-06
aF-3.8479204794918123
aa(lp603
F-2.67950776894906
aF-9.553915902956273e-06
aF-2.6795077689490636
aa(lp604
F-3.847920479491809
aF-6.75659837396704e-06
aF-0.5081123289013852
aa(lp605
F-4.377920706080136
aF-2.4709448079110196e-07
aF-0.2777760433195694
aa(lp606
F-4.226396978485655
aF-2.4709448050365455e-07
aF-0.8406826284768196
aa(lp607
F-4.9885469616690905
aF9.553915900264871e-06
aF-6.738613414647836e-15
aa(lp608
F-4.226396978485655
aF-2.4709448106342093e-07
aF0.8406826284768082
aa(lp609
F-4.377920706080136
aF-2.4709448097264843e-07
aF0.2777760433195604
aa(lp610
F-3.847920479491809
aF-6.7565983743150065e-06
aF0.5081123289013763
aa(lp611
F-2.67950776894906
aF-9.553915904741476e-06
aF2.6795077689490467
aa(lp612
F-0.5081123289013724
aF-6.756598373195466e-06
aF3.847920479491809
aa(lp613
F-0.27777604331955624
aF-2.4709447961105335e-07
aF4.37792070608014
aa(lp614
F-0.8406826284768111
aF-2.470944799287587e-07
aF4.226396978485649
aa(lp615
F5.816915109330687e-15
aF9.553915901929037e-06
aF4.9885469616690905
aa(lp616
F7.75340548015901e-15
aF9.553915901929037e-06
aF4.988546961669093
aa(lp617
F7.75340548015901e-15
aF9.553915901929037e-06
aF4.988546961669093
aasVsimpleFleche
p618
(lp619
(lp620
F2.442213085520527
aF0.0
aF-1.1760556428393092e-15
aa(lp621
F-2.4422130855205304
aF0.0
aF-4.884426171041068
aa(lp622
F-0.7232477049788668
aF0.0
aF-1.1760556428393092e-15
aa(lp623
F-2.4422130855205304
aF0.0
aF4.884426171041071
aa(lp624
F2.442213085520527
aF0.0
aF1.620144852689373e-15
aa(lp625
F2.442213085520527
aF0.0
aF-1.1760556428393092e-15
aas.